target datalayout = "e-m:e-p270:32:32-p271:32:32-p272:64:64-i64:64-i128:128-f80:128-n8:16:32:64-S128"
target triple = "x86_64-pc-linux-gnu"

%struct.ieee802154_hints_t = type { i16, i16, i16, ptr, ptr }

@proto_ieee802154 = internal global i32 0, align 4

; Function Attrs: null_pointer_is_valid sspstrong uwtable
define internal ptr @ieee802154_da_value(ptr noundef %0) #0 {
  %2 = alloca ptr, align 8
  %3 = alloca ptr, align 8
  %4 = alloca ptr, align 8
  %5 = alloca i32, align 4
  store ptr %0, ptr %3, align 8
  call void @llvm.lifetime.start.p0(i64 8, ptr %4) #17
  %6 = call ptr @wmem_file_scope()
  %7 = load ptr, ptr %3, align 8
  %8 = load i32, ptr @proto_ieee802154, align 4
  %9 = call ptr @p_get_proto_data(ptr noundef %6, ptr noundef %7, i32 noundef %8, i32 noundef 0)
  store ptr %9, ptr %4, align 8
  %10 = load ptr, ptr %4, align 8
  %11 = icmp ne ptr %10, null
  br i1 %11, label %12, label %19

12:                                               ; preds = %1
  %13 = load ptr, ptr %4, align 8
  %14 = getelementptr inbounds nuw %struct.ieee802154_hints_t, ptr %13, i32 0, i32 0
  %15 = load i16, ptr %14, align 8
  %16 = zext i16 %15 to i32
  %17 = zext i32 %16 to i64
  %18 = inttoptr i64 %17 to ptr
  store ptr %18, ptr %2, align 8
  store i32 1, ptr %5, align 4
  br label %20

19:                                               ; preds = %1
  store ptr null, ptr %2, align 8
  store i32 1, ptr %5, align 4
  br label %20

20:                                               ; preds = %19, %12
  call void @llvm.lifetime.end.p0(i64 8, ptr %4) #17
  %21 = load ptr, ptr %2, align 8
  ret ptr %21
}