; Function Attrs: null_pointer_is_valid sspstrong uwtable
define internal ptr @ieee802154_da_value(ptr noundef %0) #0 {
  %2 = tail call ptr @wmem_file_scope()
  %3 = load i32, ptr @proto_ieee802154, align 4
  %4 = tail call ptr @p_get_proto_data(ptr noundef %2, ptr noundef %0, i32 noundef %3, i32 noundef 0)
  %.not = icmp eq ptr %4, null
  br i1 %.not, label %9, label %5

5:                                                ; preds = %1
  %6 = load i16, ptr %4, align 8
  %7 = zext i16 %6 to i64
  %8 = inttoptr i64 %7 to ptr
  br label %9

9:                                                ; preds = %1, %5
  %.0 = phi ptr [ %8, %5 ], [ null, %1 ]
  ret ptr %.0
}